ARM GAS  C:\Users\julie\AppData\Local\Temp\ccRduDIA.s 			page 1


   1              		.syntax unified
   2              		.cpu cortex-m3
   3              		.fpu softvfp
   4              		.eabi_attribute 20, 1
   5              		.eabi_attribute 21, 1
   6              		.eabi_attribute 23, 3
   7              		.eabi_attribute 24, 1
   8              		.eabi_attribute 25, 1
   9              		.eabi_attribute 26, 1
  10              		.eabi_attribute 30, 1
  11              		.eabi_attribute 34, 1
  12              		.eabi_attribute 18, 4
  13              		.thumb
  14              		.syntax unified
  15              		.file	"main.c"
  16              		.text
  17              	.Ltext0:
  18              		.cfi_sections	.debug_frame
  19              		.section	.text.append,"ax",%progbits
  20              		.align	2
  21              		.global	append
  22              		.thumb
  23              		.thumb_func
  24              		.type	append, %function
  25              	append:
  26              	.LFB63:
  27              		.file 1 "main.c"
   1:main.c        **** /* ========================================
   2:main.c        ****  *
   3:main.c        ****  * Copyright YOUR COMPANY, THE YEAR
   4:main.c        ****  * All Rights Reserved
   5:main.c        ****  * UNPUBLISHED, LICENSED SOFTWARE.
   6:main.c        ****  *
   7:main.c        ****  * CONFIDENTIAL AND PROPRIETARY INFORMATION
   8:main.c        ****  * WHICH IS THE PROPERTY OF your company.
   9:main.c        ****  *
  10:main.c        ****  * ========================================
  11:main.c        **** */
  12:main.c        **** #include "keypad.h"
  13:main.c        **** #include "project.h"
  14:main.c        **** typedef enum { false, true } bool;
  15:main.c        **** 
  16:main.c        **** const int A[3] = {1,2,0};
  17:main.c        **** const int B[5] = {2,1,1,1,0};
  18:main.c        **** const int C[5] = {2,1,2,1,0};
  19:main.c        **** const int D[4] = {2,1,1,0};
  20:main.c        **** const int E[2] = {1,0};
  21:main.c        **** const int F[5] = {1,1,2,1,0};
  22:main.c        **** const int G[4] = {2,2,1,0};
  23:main.c        **** const int H[5] = {1,1,1,1,0};
  24:main.c        **** const int I[3] = {1,1,0};
  25:main.c        **** const int J[5] = {1,2,2,2,0};
  26:main.c        **** const int K[4] = {2,1,2,0};
  27:main.c        **** const int L[5] = {1,2,1,1,0};
  28:main.c        **** const int M[3] = {2,2,0};
  29:main.c        **** const int N[3] = {2,1,0};
  30:main.c        **** const int O[4] = {2,2,2,0};
ARM GAS  C:\Users\julie\AppData\Local\Temp\ccRduDIA.s 			page 2


  31:main.c        **** const int P[5] = {1,2,2,1,0};
  32:main.c        **** const int Q[5] = {2,2,1,2,0};
  33:main.c        **** const int R[4] = {1,2,1,0};
  34:main.c        **** const int S[4] = {1,1,1,0};
  35:main.c        **** const int T[2] = {2,0};
  36:main.c        **** const int U[4] = {1,1,2,0};
  37:main.c        **** const int V[5] = {1,1,1,2,0};
  38:main.c        **** const int W[4] = {1,2,2,0};
  39:main.c        **** const int X[5] = {2,1,1,2,0};
  40:main.c        **** const int Y[5] = {2,1,2,2,0};
  41:main.c        **** const int Z[5] = {2,2,1,1,0};
  42:main.c        **** 
  43:main.c        **** const int morse_0[6] = {2,2,2,2,2,0};
  44:main.c        **** const int morse_1[6] = {1,2,2,2,2,0};
  45:main.c        **** const int morse_2[6] = {1,1,2,2,2,0};
  46:main.c        **** const int morse_3[6] = {1,1,1,2,2,0};
  47:main.c        **** const int morse_4[6] = {1,1,1,1,2,0};
  48:main.c        **** const int morse_5[6] = {1,1,1,1,1,0};
  49:main.c        **** const int morse_6[6] = {2,1,1,1,1,0};
  50:main.c        **** const int morse_7[6] = {2,2,1,1,1,0};
  51:main.c        **** const int morse_8[6] = {2,2,2,1,1,0};
  52:main.c        **** const int morse_9[6] = {2,2,2,2,1,0};
  53:main.c        **** 
  54:main.c        **** char * append(char * string1, char * string2)
  55:main.c        **** {
  28              		.loc 1 55 0
  29              		.cfi_startproc
  30              		@ args = 0, pretend = 0, frame = 8
  31              		@ frame_needed = 0, uses_anonymous_args = 0
  32              	.LVL0:
  33 0000 10B5     		push	{r4, lr}
  34              		.cfi_def_cfa_offset 8
  35              		.cfi_offset 4, -8
  36              		.cfi_offset 14, -4
  37 0002 82B0     		sub	sp, sp, #8
  38              		.cfi_def_cfa_offset 16
  56:main.c        ****     char * result = NULL;
  39              		.loc 1 56 0
  40 0004 02AC     		add	r4, sp, #8
  41 0006 0023     		movs	r3, #0
  42 0008 44F8043D 		str	r3, [r4, #-4]!
  57:main.c        ****     asprintf(&result, "%s%s", string1, string2);
  43              		.loc 1 57 0
  44 000c 0B46     		mov	r3, r1
  45 000e 0246     		mov	r2, r0
  46 0010 0349     		ldr	r1, .L3
  47              	.LVL1:
  48 0012 2046     		mov	r0, r4
  49              	.LVL2:
  50 0014 FFF7FEFF 		bl	asprintf
  51              	.LVL3:
  58:main.c        ****     return result;
  59:main.c        **** }
  52              		.loc 1 59 0
  53 0018 0198     		ldr	r0, [sp, #4]
  54 001a 02B0     		add	sp, sp, #8
  55              		.cfi_def_cfa_offset 8
ARM GAS  C:\Users\julie\AppData\Local\Temp\ccRduDIA.s 			page 3


  56              		@ sp needed
  57 001c 10BD     		pop	{r4, pc}
  58              	.L4:
  59 001e 00BF     		.align	2
  60              	.L3:
  61 0020 00000000 		.word	.LC0
  62              		.cfi_endproc
  63              	.LFE63:
  64              		.size	append, .-append
  65              		.section	.text.MakeLongLight,"ax",%progbits
  66              		.align	2
  67              		.global	MakeLongLight
  68              		.thumb
  69              		.thumb_func
  70              		.type	MakeLongLight, %function
  71              	MakeLongLight:
  72              	.LFB64:
  60:main.c        **** 
  61:main.c        **** /// ET CA FAIT BIM BAM BOUM CA FAIT PSCHIT ET CA FAIT VROUM
  62:main.c        **** void MakeLongLight()
  63:main.c        **** {
  73              		.loc 1 63 0
  74              		.cfi_startproc
  75              		@ args = 0, pretend = 0, frame = 0
  76              		@ frame_needed = 0, uses_anonymous_args = 0
  77 0000 08B5     		push	{r3, lr}
  78              		.cfi_def_cfa_offset 8
  79              		.cfi_offset 3, -8
  80              		.cfi_offset 14, -4
  64:main.c        ****     D1_Write(1);
  81              		.loc 1 64 0
  82 0002 0120     		movs	r0, #1
  83 0004 FFF7FEFF 		bl	D1_Write
  84              	.LVL4:
  65:main.c        ****     D2_Write(1);
  85              		.loc 1 65 0
  86 0008 0120     		movs	r0, #1
  87 000a FFF7FEFF 		bl	D2_Write
  88              	.LVL5:
  66:main.c        ****     D3_Write(1);
  89              		.loc 1 66 0
  90 000e 0120     		movs	r0, #1
  91 0010 FFF7FEFF 		bl	D3_Write
  92              	.LVL6:
  67:main.c        ****     D4_Write(1);
  93              		.loc 1 67 0
  94 0014 0120     		movs	r0, #1
  95 0016 FFF7FEFF 		bl	D4_Write
  96              	.LVL7:
  68:main.c        ****     CyDelay(500);
  97              		.loc 1 68 0
  98 001a 4FF4FA70 		mov	r0, #500
  99 001e FFF7FEFF 		bl	CyDelay
 100              	.LVL8:
  69:main.c        ****     D1_Write(0);
 101              		.loc 1 69 0
 102 0022 0020     		movs	r0, #0
ARM GAS  C:\Users\julie\AppData\Local\Temp\ccRduDIA.s 			page 4


 103 0024 FFF7FEFF 		bl	D1_Write
 104              	.LVL9:
  70:main.c        ****     D2_Write(0);
 105              		.loc 1 70 0
 106 0028 0020     		movs	r0, #0
 107 002a FFF7FEFF 		bl	D2_Write
 108              	.LVL10:
  71:main.c        ****     D3_Write(0);
 109              		.loc 1 71 0
 110 002e 0020     		movs	r0, #0
 111 0030 FFF7FEFF 		bl	D3_Write
 112              	.LVL11:
  72:main.c        ****     D4_Write(0);
 113              		.loc 1 72 0
 114 0034 0020     		movs	r0, #0
 115 0036 FFF7FEFF 		bl	D4_Write
 116              	.LVL12:
  73:main.c        ****     CyDelay(250);
 117              		.loc 1 73 0
 118 003a FA20     		movs	r0, #250
 119 003c FFF7FEFF 		bl	CyDelay
 120              	.LVL13:
 121 0040 08BD     		pop	{r3, pc}
 122              		.cfi_endproc
 123              	.LFE64:
 124              		.size	MakeLongLight, .-MakeLongLight
 125 0042 00BF     		.section	.text.MakeShortLight,"ax",%progbits
 126              		.align	2
 127              		.global	MakeShortLight
 128              		.thumb
 129              		.thumb_func
 130              		.type	MakeShortLight, %function
 131              	MakeShortLight:
 132              	.LFB65:
  74:main.c        **** }
  75:main.c        **** /// Chip coup
  76:main.c        **** void MakeShortLight()
  77:main.c        **** {
 133              		.loc 1 77 0
 134              		.cfi_startproc
 135              		@ args = 0, pretend = 0, frame = 0
 136              		@ frame_needed = 0, uses_anonymous_args = 0
 137 0000 08B5     		push	{r3, lr}
 138              		.cfi_def_cfa_offset 8
 139              		.cfi_offset 3, -8
 140              		.cfi_offset 14, -4
  78:main.c        ****     D1_Write(1);
 141              		.loc 1 78 0
 142 0002 0120     		movs	r0, #1
 143 0004 FFF7FEFF 		bl	D1_Write
 144              	.LVL14:
  79:main.c        ****     D2_Write(1);
 145              		.loc 1 79 0
 146 0008 0120     		movs	r0, #1
 147 000a FFF7FEFF 		bl	D2_Write
 148              	.LVL15:
  80:main.c        ****     D3_Write(1);
ARM GAS  C:\Users\julie\AppData\Local\Temp\ccRduDIA.s 			page 5


 149              		.loc 1 80 0
 150 000e 0120     		movs	r0, #1
 151 0010 FFF7FEFF 		bl	D3_Write
 152              	.LVL16:
  81:main.c        ****     D4_Write(1);
 153              		.loc 1 81 0
 154 0014 0120     		movs	r0, #1
 155 0016 FFF7FEFF 		bl	D4_Write
 156              	.LVL17:
  82:main.c        ****     CyDelay(250);
 157              		.loc 1 82 0
 158 001a FA20     		movs	r0, #250
 159 001c FFF7FEFF 		bl	CyDelay
 160              	.LVL18:
  83:main.c        ****     D1_Write(0);
 161              		.loc 1 83 0
 162 0020 0020     		movs	r0, #0
 163 0022 FFF7FEFF 		bl	D1_Write
 164              	.LVL19:
  84:main.c        ****     D2_Write(0);
 165              		.loc 1 84 0
 166 0026 0020     		movs	r0, #0
 167 0028 FFF7FEFF 		bl	D2_Write
 168              	.LVL20:
  85:main.c        ****     D3_Write(0);
 169              		.loc 1 85 0
 170 002c 0020     		movs	r0, #0
 171 002e FFF7FEFF 		bl	D3_Write
 172              	.LVL21:
  86:main.c        ****     D4_Write(0);
 173              		.loc 1 86 0
 174 0032 0020     		movs	r0, #0
 175 0034 FFF7FEFF 		bl	D4_Write
 176              	.LVL22:
  87:main.c        ****     CyDelay(250);
 177              		.loc 1 87 0
 178 0038 FA20     		movs	r0, #250
 179 003a FFF7FEFF 		bl	CyDelay
 180              	.LVL23:
 181 003e 08BD     		pop	{r3, pc}
 182              		.cfi_endproc
 183              	.LFE65:
 184              		.size	MakeShortLight, .-MakeShortLight
 185              		.section	.text.Translate_to_morse,"ax",%progbits
 186              		.align	2
 187              		.global	Translate_to_morse
 188              		.thumb
 189              		.thumb_func
 190              		.type	Translate_to_morse, %function
 191              	Translate_to_morse:
 192              	.LFB66:
  88:main.c        **** }
  89:main.c        **** const int* Translate_to_morse(char c){
 193              		.loc 1 89 0
 194              		.cfi_startproc
 195              		@ args = 0, pretend = 0, frame = 0
 196              		@ frame_needed = 0, uses_anonymous_args = 0
ARM GAS  C:\Users\julie\AppData\Local\Temp\ccRduDIA.s 			page 6


 197              		@ link register save eliminated.
 198              	.LVL24:
  90:main.c        ****     
  91:main.c        ****     if(c == 'a'){
 199              		.loc 1 91 0
 200 0000 6128     		cmp	r0, #97
 201 0002 33D0     		beq	.L11
  92:main.c        ****         return(A);
  93:main.c        ****     }
  94:main.c        ****     else if(c == 'b'){
 202              		.loc 1 94 0
 203 0004 6228     		cmp	r0, #98
 204 0006 33D0     		beq	.L12
  95:main.c        ****         return(B);
  96:main.c        ****     }
  97:main.c        ****     else if(c == 'c'){
 205              		.loc 1 97 0
 206 0008 6328     		cmp	r0, #99
 207 000a 33D0     		beq	.L13
  98:main.c        ****         return(C);
  99:main.c        ****     }
 100:main.c        ****     else if(c == 'd'){
 208              		.loc 1 100 0
 209 000c 6428     		cmp	r0, #100
 210 000e 33D0     		beq	.L14
 101:main.c        ****         return(D);
 102:main.c        ****     }
 103:main.c        ****     else if(c == 'e'){
 211              		.loc 1 103 0
 212 0010 6528     		cmp	r0, #101
 213 0012 33D0     		beq	.L15
 104:main.c        ****         return(E);
 105:main.c        ****     }
 106:main.c        ****     else if(c == 'f'){
 214              		.loc 1 106 0
 215 0014 6628     		cmp	r0, #102
 216 0016 33D0     		beq	.L16
 107:main.c        ****         return(F);
 108:main.c        ****     }
 109:main.c        ****     else if(c == 'g'){
 217              		.loc 1 109 0
 218 0018 6728     		cmp	r0, #103
 219 001a 33D0     		beq	.L17
 110:main.c        ****         return(G);
 111:main.c        ****     }
 112:main.c        ****     else if(c == 'h'){
 220              		.loc 1 112 0
 221 001c 6828     		cmp	r0, #104
 222 001e 33D0     		beq	.L18
 113:main.c        ****         return(H);
 114:main.c        ****     }
 115:main.c        ****     else if(c == 'i'){
 223              		.loc 1 115 0
 224 0020 6928     		cmp	r0, #105
 225 0022 33D0     		beq	.L19
 116:main.c        ****         return(I);
 117:main.c        ****     }
ARM GAS  C:\Users\julie\AppData\Local\Temp\ccRduDIA.s 			page 7


 118:main.c        ****     else if(c == 'j'){
 226              		.loc 1 118 0
 227 0024 6A28     		cmp	r0, #106
 228 0026 33D0     		beq	.L20
 119:main.c        ****         return(J);
 120:main.c        ****     }
 121:main.c        ****     else if(c == 'k'){
 229              		.loc 1 121 0
 230 0028 6B28     		cmp	r0, #107
 231 002a 33D0     		beq	.L21
 122:main.c        ****         return(K);
 123:main.c        ****     }
 124:main.c        ****     else if(c == 'l'){
 232              		.loc 1 124 0
 233 002c 6C28     		cmp	r0, #108
 234 002e 33D0     		beq	.L22
 125:main.c        ****         return(L);
 126:main.c        ****     }
 127:main.c        ****     else if(c == 'm'){
 235              		.loc 1 127 0
 236 0030 6D28     		cmp	r0, #109
 237 0032 33D0     		beq	.L23
 128:main.c        ****         return(M);
 129:main.c        ****     }
 130:main.c        ****     else if(c == 'n'){
 238              		.loc 1 130 0
 239 0034 6E28     		cmp	r0, #110
 240 0036 33D0     		beq	.L24
 131:main.c        ****         return(N);
 132:main.c        ****     }
 133:main.c        ****     else if(c == 'o'){
 241              		.loc 1 133 0
 242 0038 6F28     		cmp	r0, #111
 243 003a 33D0     		beq	.L25
 134:main.c        ****         return(O);
 135:main.c        ****     }
 136:main.c        ****     else if(c == 'p'){
 244              		.loc 1 136 0
 245 003c 7028     		cmp	r0, #112
 246 003e 33D0     		beq	.L26
 137:main.c        ****         return(P);
 138:main.c        ****     }
 139:main.c        ****     else if(c == 'q'){
 247              		.loc 1 139 0
 248 0040 7128     		cmp	r0, #113
 249 0042 33D0     		beq	.L27
 140:main.c        ****         return(Q);
 141:main.c        ****     }
 142:main.c        ****     else if(c == 'r'){
 250              		.loc 1 142 0
 251 0044 7228     		cmp	r0, #114
 252 0046 33D0     		beq	.L28
 143:main.c        ****         return(R);
 144:main.c        ****     }
 145:main.c        ****     else if(c == 's'){
 253              		.loc 1 145 0
 254 0048 7328     		cmp	r0, #115
ARM GAS  C:\Users\julie\AppData\Local\Temp\ccRduDIA.s 			page 8


 255 004a 33D0     		beq	.L29
 146:main.c        ****         return(S);
 147:main.c        ****     }
 148:main.c        ****     else if(c == 't'){
 256              		.loc 1 148 0
 257 004c 7428     		cmp	r0, #116
 258 004e 33D0     		beq	.L30
 149:main.c        ****         return(T);
 150:main.c        ****     }
 151:main.c        ****     else if(c == 'u'){
 259              		.loc 1 151 0
 260 0050 7528     		cmp	r0, #117
 261 0052 33D0     		beq	.L31
 152:main.c        ****         return(U);
 153:main.c        ****     }
 154:main.c        ****     else if(c == 'v'){
 262              		.loc 1 154 0
 263 0054 7628     		cmp	r0, #118
 264 0056 33D0     		beq	.L32
 155:main.c        ****         return(V);
 156:main.c        ****     }
 157:main.c        ****     else if(c == 'w'){
 265              		.loc 1 157 0
 266 0058 7728     		cmp	r0, #119
 267 005a 33D0     		beq	.L33
 158:main.c        ****         return(W);
 159:main.c        ****     }
 160:main.c        ****     else if(c == 'x'){
 268              		.loc 1 160 0
 269 005c 7828     		cmp	r0, #120
 270 005e 33D0     		beq	.L34
 161:main.c        ****         return(X);
 162:main.c        ****     }
 163:main.c        ****     else if(c == 'y'){
 271              		.loc 1 163 0
 272 0060 7928     		cmp	r0, #121
 273 0062 33D0     		beq	.L35
 164:main.c        ****         return(Y);
 165:main.c        ****     }
 166:main.c        ****     else if(c == 'z'){
 274              		.loc 1 166 0
 275 0064 7A28     		cmp	r0, #122
 276 0066 33D1     		bne	.L36
 167:main.c        ****         return(Z);
 277              		.loc 1 167 0
 278 0068 1A48     		ldr	r0, .L37
 279              	.LVL25:
 280 006a 7047     		bx	lr
 281              	.LVL26:
 282              	.L11:
  92:main.c        ****     }
 283              		.loc 1 92 0
 284 006c 1A48     		ldr	r0, .L37+4
 285              	.LVL27:
 286 006e 7047     		bx	lr
 287              	.LVL28:
 288              	.L12:
ARM GAS  C:\Users\julie\AppData\Local\Temp\ccRduDIA.s 			page 9


  95:main.c        ****     }
 289              		.loc 1 95 0
 290 0070 1A48     		ldr	r0, .L37+8
 291              	.LVL29:
 292 0072 7047     		bx	lr
 293              	.LVL30:
 294              	.L13:
  98:main.c        ****     }
 295              		.loc 1 98 0
 296 0074 1A48     		ldr	r0, .L37+12
 297              	.LVL31:
 298 0076 7047     		bx	lr
 299              	.LVL32:
 300              	.L14:
 101:main.c        ****     }
 301              		.loc 1 101 0
 302 0078 1A48     		ldr	r0, .L37+16
 303              	.LVL33:
 304 007a 7047     		bx	lr
 305              	.LVL34:
 306              	.L15:
 104:main.c        ****     }
 307              		.loc 1 104 0
 308 007c 1A48     		ldr	r0, .L37+20
 309              	.LVL35:
 310 007e 7047     		bx	lr
 311              	.LVL36:
 312              	.L16:
 107:main.c        ****     }
 313              		.loc 1 107 0
 314 0080 1A48     		ldr	r0, .L37+24
 315              	.LVL37:
 316 0082 7047     		bx	lr
 317              	.LVL38:
 318              	.L17:
 110:main.c        ****     }
 319              		.loc 1 110 0
 320 0084 1A48     		ldr	r0, .L37+28
 321              	.LVL39:
 322 0086 7047     		bx	lr
 323              	.LVL40:
 324              	.L18:
 113:main.c        ****     }
 325              		.loc 1 113 0
 326 0088 1A48     		ldr	r0, .L37+32
 327              	.LVL41:
 328 008a 7047     		bx	lr
 329              	.LVL42:
 330              	.L19:
 116:main.c        ****     }
 331              		.loc 1 116 0
 332 008c 1A48     		ldr	r0, .L37+36
 333              	.LVL43:
 334 008e 7047     		bx	lr
 335              	.LVL44:
 336              	.L20:
 119:main.c        ****     }
ARM GAS  C:\Users\julie\AppData\Local\Temp\ccRduDIA.s 			page 10


 337              		.loc 1 119 0
 338 0090 1A48     		ldr	r0, .L37+40
 339              	.LVL45:
 340 0092 7047     		bx	lr
 341              	.LVL46:
 342              	.L21:
 122:main.c        ****     }
 343              		.loc 1 122 0
 344 0094 1A48     		ldr	r0, .L37+44
 345              	.LVL47:
 346 0096 7047     		bx	lr
 347              	.LVL48:
 348              	.L22:
 125:main.c        ****     }
 349              		.loc 1 125 0
 350 0098 1A48     		ldr	r0, .L37+48
 351              	.LVL49:
 352 009a 7047     		bx	lr
 353              	.LVL50:
 354              	.L23:
 128:main.c        ****     }
 355              		.loc 1 128 0
 356 009c 1A48     		ldr	r0, .L37+52
 357              	.LVL51:
 358 009e 7047     		bx	lr
 359              	.LVL52:
 360              	.L24:
 131:main.c        ****     }
 361              		.loc 1 131 0
 362 00a0 1A48     		ldr	r0, .L37+56
 363              	.LVL53:
 364 00a2 7047     		bx	lr
 365              	.LVL54:
 366              	.L25:
 134:main.c        ****     }
 367              		.loc 1 134 0
 368 00a4 1A48     		ldr	r0, .L37+60
 369              	.LVL55:
 370 00a6 7047     		bx	lr
 371              	.LVL56:
 372              	.L26:
 137:main.c        ****     }
 373              		.loc 1 137 0
 374 00a8 1A48     		ldr	r0, .L37+64
 375              	.LVL57:
 376 00aa 7047     		bx	lr
 377              	.LVL58:
 378              	.L27:
 140:main.c        ****     }
 379              		.loc 1 140 0
 380 00ac 1A48     		ldr	r0, .L37+68
 381              	.LVL59:
 382 00ae 7047     		bx	lr
 383              	.LVL60:
 384              	.L28:
 143:main.c        ****     }
 385              		.loc 1 143 0
ARM GAS  C:\Users\julie\AppData\Local\Temp\ccRduDIA.s 			page 11


 386 00b0 1A48     		ldr	r0, .L37+72
 387              	.LVL61:
 388 00b2 7047     		bx	lr
 389              	.LVL62:
 390              	.L29:
 146:main.c        ****     }
 391              		.loc 1 146 0
 392 00b4 1A48     		ldr	r0, .L37+76
 393              	.LVL63:
 394 00b6 7047     		bx	lr
 395              	.LVL64:
 396              	.L30:
 149:main.c        ****     }
 397              		.loc 1 149 0
 398 00b8 1A48     		ldr	r0, .L37+80
 399              	.LVL65:
 400 00ba 7047     		bx	lr
 401              	.LVL66:
 402              	.L31:
 152:main.c        ****     }
 403              		.loc 1 152 0
 404 00bc 1A48     		ldr	r0, .L37+84
 405              	.LVL67:
 406 00be 7047     		bx	lr
 407              	.LVL68:
 408              	.L32:
 155:main.c        ****     }
 409              		.loc 1 155 0
 410 00c0 1A48     		ldr	r0, .L37+88
 411              	.LVL69:
 412 00c2 7047     		bx	lr
 413              	.LVL70:
 414              	.L33:
 158:main.c        ****     }
 415              		.loc 1 158 0
 416 00c4 1A48     		ldr	r0, .L37+92
 417              	.LVL71:
 418 00c6 7047     		bx	lr
 419              	.LVL72:
 420              	.L34:
 161:main.c        ****     }
 421              		.loc 1 161 0
 422 00c8 1A48     		ldr	r0, .L37+96
 423              	.LVL73:
 424 00ca 7047     		bx	lr
 425              	.LVL74:
 426              	.L35:
 164:main.c        ****     }
 427              		.loc 1 164 0
 428 00cc 1A48     		ldr	r0, .L37+100
 429              	.LVL75:
 430 00ce 7047     		bx	lr
 431              	.LVL76:
 432              	.L36:
 168:main.c        ****     }
 169:main.c        ****     else{
 170:main.c        ****         return(NULL);
ARM GAS  C:\Users\julie\AppData\Local\Temp\ccRduDIA.s 			page 12


 433              		.loc 1 170 0
 434 00d0 0020     		movs	r0, #0
 435              	.LVL77:
 171:main.c        ****     }
 172:main.c        ****     
 173:main.c        **** }
 436              		.loc 1 173 0
 437 00d2 7047     		bx	lr
 438              	.L38:
 439              		.align	2
 440              	.L37:
 441 00d4 9C010000 		.word	.LANCHOR0+412
 442 00d8 00000000 		.word	.LANCHOR0
 443 00dc 0C000000 		.word	.LANCHOR0+12
 444 00e0 20000000 		.word	.LANCHOR0+32
 445 00e4 34000000 		.word	.LANCHOR0+52
 446 00e8 44000000 		.word	.LANCHOR0+68
 447 00ec 4C000000 		.word	.LANCHOR0+76
 448 00f0 60000000 		.word	.LANCHOR0+96
 449 00f4 70000000 		.word	.LANCHOR0+112
 450 00f8 84000000 		.word	.LANCHOR0+132
 451 00fc 90000000 		.word	.LANCHOR0+144
 452 0100 A4000000 		.word	.LANCHOR0+164
 453 0104 B4000000 		.word	.LANCHOR0+180
 454 0108 C8000000 		.word	.LANCHOR0+200
 455 010c D4000000 		.word	.LANCHOR0+212
 456 0110 E0000000 		.word	.LANCHOR0+224
 457 0114 F0000000 		.word	.LANCHOR0+240
 458 0118 04010000 		.word	.LANCHOR0+260
 459 011c 18010000 		.word	.LANCHOR0+280
 460 0120 28010000 		.word	.LANCHOR0+296
 461 0124 38010000 		.word	.LANCHOR0+312
 462 0128 40010000 		.word	.LANCHOR0+320
 463 012c 50010000 		.word	.LANCHOR0+336
 464 0130 64010000 		.word	.LANCHOR0+356
 465 0134 74010000 		.word	.LANCHOR0+372
 466 0138 88010000 		.word	.LANCHOR0+392
 467              		.cfi_endproc
 468              	.LFE66:
 469              		.size	Translate_to_morse, .-Translate_to_morse
 470              		.section	.text.LCDPrint,"ax",%progbits
 471              		.align	2
 472              		.global	LCDPrint
 473              		.thumb
 474              		.thumb_func
 475              		.type	LCDPrint, %function
 476              	LCDPrint:
 477              	.LFB67:
 174:main.c        **** void LCDPrint(char* string)
 175:main.c        **** {
 478              		.loc 1 175 0
 479              		.cfi_startproc
 480              		@ args = 0, pretend = 0, frame = 0
 481              		@ frame_needed = 0, uses_anonymous_args = 0
 482              	.LVL78:
 483 0000 10B5     		push	{r4, lr}
 484              		.cfi_def_cfa_offset 8
ARM GAS  C:\Users\julie\AppData\Local\Temp\ccRduDIA.s 			page 13


 485              		.cfi_offset 4, -8
 486              		.cfi_offset 14, -4
 487 0002 0446     		mov	r4, r0
 176:main.c        ****     LCD_Char_1_Position(0,0);
 488              		.loc 1 176 0
 489 0004 0021     		movs	r1, #0
 490 0006 0846     		mov	r0, r1
 491              	.LVL79:
 492 0008 FFF7FEFF 		bl	LCD_Char_1_Position
 493              	.LVL80:
 177:main.c        ****     LCD_Char_1_PrintString(string);
 494              		.loc 1 177 0
 495 000c 2046     		mov	r0, r4
 496 000e FFF7FEFF 		bl	LCD_Char_1_PrintString
 497              	.LVL81:
 498 0012 10BD     		pop	{r4, pc}
 499              		.cfi_endproc
 500              	.LFE67:
 501              		.size	LCDPrint, .-LCDPrint
 502              		.section	.text.Send_to_leds,"ax",%progbits
 503              		.align	2
 504              		.global	Send_to_leds
 505              		.thumb
 506              		.thumb_func
 507              		.type	Send_to_leds, %function
 508              	Send_to_leds:
 509              	.LFB68:
 178:main.c        **** }
 179:main.c        **** 
 180:main.c        **** void Send_to_leds(char* string){
 510              		.loc 1 180 0
 511              		.cfi_startproc
 512              		@ args = 0, pretend = 0, frame = 0
 513              		@ frame_needed = 0, uses_anonymous_args = 0
 514              	.LVL82:
 515 0000 38B5     		push	{r3, r4, r5, lr}
 516              		.cfi_def_cfa_offset 16
 517              		.cfi_offset 3, -16
 518              		.cfi_offset 4, -12
 519              		.cfi_offset 5, -8
 520              		.cfi_offset 14, -4
 521 0002 0446     		mov	r4, r0
 181:main.c        ****     LCDPrint(string);
 522              		.loc 1 181 0
 523 0004 FFF7FEFF 		bl	LCDPrint
 524              	.LVL83:
 182:main.c        ****     int n = strlen(string);
 525              		.loc 1 182 0
 526 0008 2046     		mov	r0, r4
 527 000a FFF7FEFF 		bl	strlen
 528              	.LVL84:
 529 000e 0546     		mov	r5, r0
 530              	.LVL85:
 531              	.LBB2:
 183:main.c        ****     for(int i = 0; i<n ;n++){
 532              		.loc 1 183 0
 533 0010 13E0     		b	.L42
ARM GAS  C:\Users\julie\AppData\Local\Temp\ccRduDIA.s 			page 14


 534              	.LVL86:
 535              	.L45:
 536              	.LBB3:
 184:main.c        ****         int j = 0;
 185:main.c        ****         while(Translate_to_morse(string[i])[j] != 0){
 186:main.c        ****             if(Translate_to_morse(string[i])[j] == 1){
 537              		.loc 1 186 0
 538 0012 012B     		cmp	r3, #1
 539 0014 02D1     		bne	.L43
 187:main.c        ****                 MakeShortLight();
 540              		.loc 1 187 0
 541 0016 FFF7FEFF 		bl	MakeShortLight
 542              	.LVL87:
 543 001a 03E0     		b	.L46
 544              	.L43:
 188:main.c        ****             }
 189:main.c        ****             else if(Translate_to_morse(string[i])[j] == 2){
 545              		.loc 1 189 0
 546 001c 022B     		cmp	r3, #2
 547 001e 01D1     		bne	.L46
 190:main.c        ****                 MakeLongLight();
 548              		.loc 1 190 0
 549 0020 FFF7FEFF 		bl	MakeLongLight
 550              	.LVL88:
 551              	.L46:
 185:main.c        ****             if(Translate_to_morse(string[i])[j] == 1){
 552              		.loc 1 185 0
 553 0024 2078     		ldrb	r0, [r4]	@ zero_extendqisi2
 554 0026 FFF7FEFF 		bl	Translate_to_morse
 555              	.LVL89:
 556 002a 0368     		ldr	r3, [r0]
 557 002c 002B     		cmp	r3, #0
 558 002e F0D1     		bne	.L45
 191:main.c        ****             }
 192:main.c        ****         }
 193:main.c        ****         CyDelay(500);
 559              		.loc 1 193 0 discriminator 2
 560 0030 4FF4FA70 		mov	r0, #500
 561 0034 FFF7FEFF 		bl	CyDelay
 562              	.LVL90:
 563              	.LBE3:
 183:main.c        ****         int j = 0;
 564              		.loc 1 183 0 discriminator 2
 565 0038 0135     		adds	r5, r5, #1
 566              	.LVL91:
 567              	.L42:
 183:main.c        ****         int j = 0;
 568              		.loc 1 183 0 is_stmt 0 discriminator 1
 569 003a 002D     		cmp	r5, #0
 570 003c F2DC     		bgt	.L46
 571              	.LBE2:
 194:main.c        ****     }  
 195:main.c        ****     LCD_Char_1_ClearDisplay();
 572              		.loc 1 195 0 is_stmt 1
 573 003e 0120     		movs	r0, #1
 574 0040 FFF7FEFF 		bl	LCD_Char_1_WriteControl
 575              	.LVL92:
ARM GAS  C:\Users\julie\AppData\Local\Temp\ccRduDIA.s 			page 15


 576 0044 38BD     		pop	{r3, r4, r5, pc}
 577              		.cfi_endproc
 578              	.LFE68:
 579              		.size	Send_to_leds, .-Send_to_leds
 580 0046 00BF     		.section	.text.Send_SOS_message,"ax",%progbits
 581              		.align	2
 582              		.global	Send_SOS_message
 583              		.thumb
 584              		.thumb_func
 585              		.type	Send_SOS_message, %function
 586              	Send_SOS_message:
 587              	.LFB69:
 196:main.c        **** }
 197:main.c        **** 
 198:main.c        **** bool Send_SOS_message(char* string)
 199:main.c        **** {
 588              		.loc 1 199 0
 589              		.cfi_startproc
 590              		@ args = 0, pretend = 0, frame = 0
 591              		@ frame_needed = 0, uses_anonymous_args = 0
 592              	.LVL93:
 593 0000 10B5     		push	{r4, lr}
 594              		.cfi_def_cfa_offset 8
 595              		.cfi_offset 4, -8
 596              		.cfi_offset 14, -4
 597 0002 0446     		mov	r4, r0
 200:main.c        ****     if(strlen(string) == 1){
 598              		.loc 1 200 0
 599 0004 FFF7FEFF 		bl	strlen
 600              	.LVL94:
 601 0008 0128     		cmp	r0, #1
 602 000a 15D0     		beq	.L51
 201:main.c        ****         return false;
 202:main.c        ****     }
 203:main.c        ****     else if(strlen(string) == 2){
 603              		.loc 1 203 0
 604 000c 0228     		cmp	r0, #2
 605 000e 15D1     		bne	.L52
 204:main.c        ****         if (strcmp(string,"1*")){
 606              		.loc 1 204 0
 607 0010 0C49     		ldr	r1, .L55
 608 0012 2046     		mov	r0, r4
 609 0014 FFF7FEFF 		bl	strcmp
 610              	.LVL95:
 611 0018 20B1     		cbz	r0, .L50
 205:main.c        ****             Send_to_leds("SOS");
 612              		.loc 1 205 0
 613 001a 0B48     		ldr	r0, .L55+4
 614 001c FFF7FEFF 		bl	Send_to_leds
 615              	.LVL96:
 206:main.c        ****         }
 207:main.c        ****         else if(strcmp(string,"2*")){
 208:main.c        ****             Send_to_leds("BEAMS");
 209:main.c        ****         }
 210:main.c        ****         return true;
 616              		.loc 1 210 0
 617 0020 0120     		movs	r0, #1
ARM GAS  C:\Users\julie\AppData\Local\Temp\ccRduDIA.s 			page 16


 618 0022 10BD     		pop	{r4, pc}
 619              	.LVL97:
 620              	.L50:
 207:main.c        ****             Send_to_leds("BEAMS");
 621              		.loc 1 207 0
 622 0024 0949     		ldr	r1, .L55+8
 623 0026 2046     		mov	r0, r4
 624 0028 FFF7FEFF 		bl	strcmp
 625              	.LVL98:
 626 002c 40B1     		cbz	r0, .L53
 208:main.c        ****         }
 627              		.loc 1 208 0
 628 002e 0848     		ldr	r0, .L55+12
 629 0030 FFF7FEFF 		bl	Send_to_leds
 630              	.LVL99:
 631              		.loc 1 210 0
 632 0034 0120     		movs	r0, #1
 633 0036 10BD     		pop	{r4, pc}
 634              	.LVL100:
 635              	.L51:
 201:main.c        ****     }
 636              		.loc 1 201 0
 637 0038 0020     		movs	r0, #0
 638 003a 10BD     		pop	{r4, pc}
 639              	.LVL101:
 640              	.L52:
 211:main.c        ****     }
 212:main.c        ****     return false;
 641              		.loc 1 212 0
 642 003c 0020     		movs	r0, #0
 643 003e 10BD     		pop	{r4, pc}
 644              	.LVL102:
 645              	.L53:
 210:main.c        ****     }
 646              		.loc 1 210 0
 647 0040 0120     		movs	r0, #1
 213:main.c        **** }
 648              		.loc 1 213 0
 649 0042 10BD     		pop	{r4, pc}
 650              	.LVL103:
 651              	.L56:
 652              		.align	2
 653              	.L55:
 654 0044 08000000 		.word	.LC1
 655 0048 0C000000 		.word	.LC2
 656 004c 10000000 		.word	.LC3
 657 0050 14000000 		.word	.LC4
 658              		.cfi_endproc
 659              	.LFE69:
 660              		.size	Send_SOS_message, .-Send_SOS_message
 661              		.section	.text.main,"ax",%progbits
 662              		.align	2
 663              		.global	main
 664              		.thumb
 665              		.thumb_func
 666              		.type	main, %function
 667              	main:
ARM GAS  C:\Users\julie\AppData\Local\Temp\ccRduDIA.s 			page 17


 668              	.LFB70:
 214:main.c        **** 
 215:main.c        **** int main(void)
 216:main.c        **** {   
 669              		.loc 1 216 0
 670              		.cfi_startproc
 671              		@ args = 0, pretend = 0, frame = 8
 672              		@ frame_needed = 0, uses_anonymous_args = 0
 673 0000 00B5     		push	{lr}
 674              		.cfi_def_cfa_offset 4
 675              		.cfi_offset 14, -4
 676 0002 83B0     		sub	sp, sp, #12
 677              		.cfi_def_cfa_offset 16
 217:main.c        ****     CyGlobalIntEnable; /* Enable global interrupts. */
 678              		.loc 1 217 0
 679              		.syntax unified
 680              	@ 217 "main.c" 1
 681 0004 62B6     		CPSIE   i
 682              	@ 0 "" 2
 218:main.c        ****     LCD_Char_1_Start();
 683              		.loc 1 218 0
 684              		.thumb
 685              		.syntax unified
 686 0006 FFF7FEFF 		bl	LCD_Char_1_Start
 687              	.LVL104:
 219:main.c        ****     char signal[] = "";
 688              		.loc 1 219 0
 689 000a 0023     		movs	r3, #0
 690 000c 8DF80430 		strb	r3, [sp, #4]
 220:main.c        ****     keypadInit();
 691              		.loc 1 220 0
 692 0010 FFF7FEFF 		bl	keypadInit
 693              	.LVL105:
 694              	.L58:
 221:main.c        ****     /* Place your initialization/startup code here (e.g. MyInst_Start()) */
 222:main.c        **** 
 223:main.c        ****     for(;;)
 224:main.c        ****     {   LCD_Char_1_Position(0,0);
 695              		.loc 1 224 0
 696 0014 0021     		movs	r1, #0
 697 0016 0846     		mov	r0, r1
 698 0018 FFF7FEFF 		bl	LCD_Char_1_Position
 699              	.LVL106:
 225:main.c        ****         LCD_Char_1_PrintString("hello");
 700              		.loc 1 225 0
 701 001c 1F48     		ldr	r0, .L66
 702 001e FFF7FEFF 		bl	LCD_Char_1_PrintString
 703              	.LVL107:
 226:main.c        ****         if (!(strcmp(keypadScan(),"z"))){
 704              		.loc 1 226 0
 705 0022 FFF7FEFF 		bl	keypadScan
 706              	.LVL108:
 707 0026 1E49     		ldr	r1, .L66+4
 708 0028 FFF7FEFF 		bl	strcmp
 709              	.LVL109:
 710 002c 28B9     		cbnz	r0, .L59
 227:main.c        ****             append(signal,keypadScan());
ARM GAS  C:\Users\julie\AppData\Local\Temp\ccRduDIA.s 			page 18


 711              		.loc 1 227 0
 712 002e FFF7FEFF 		bl	keypadScan
 713              	.LVL110:
 714 0032 0146     		mov	r1, r0
 715 0034 01A8     		add	r0, sp, #4
 716 0036 FFF7FEFF 		bl	append
 717              	.LVL111:
 718              	.L59:
 228:main.c        ****         }
 229:main.c        ****         if(Send_SOS_message(signal) == true){
 719              		.loc 1 229 0
 720 003a 01A8     		add	r0, sp, #4
 721 003c FFF7FEFF 		bl	Send_SOS_message
 722              	.LVL112:
 723 0040 0128     		cmp	r0, #1
 724 0042 02D1     		bne	.L60
 230:main.c        ****             *signal = '\0';
 725              		.loc 1 230 0
 726 0044 0023     		movs	r3, #0
 727 0046 8DF80430 		strb	r3, [sp, #4]
 728              	.L60:
 231:main.c        ****         }
 232:main.c        ****         if(Switch_1_Read()){
 729              		.loc 1 232 0
 730 004a FFF7FEFF 		bl	Switch_1_Read
 731              	.LVL113:
 732 004e 60B1     		cbz	r0, .L61
 233:main.c        ****             D1_Write(1);
 733              		.loc 1 233 0
 734 0050 0120     		movs	r0, #1
 735 0052 FFF7FEFF 		bl	D1_Write
 736              	.LVL114:
 234:main.c        ****             D2_Write(1);
 737              		.loc 1 234 0
 738 0056 0120     		movs	r0, #1
 739 0058 FFF7FEFF 		bl	D2_Write
 740              	.LVL115:
 235:main.c        ****             D3_Write(1);
 741              		.loc 1 235 0
 742 005c 0120     		movs	r0, #1
 743 005e FFF7FEFF 		bl	D3_Write
 744              	.LVL116:
 236:main.c        ****             D4_Write(1);
 745              		.loc 1 236 0
 746 0062 0120     		movs	r0, #1
 747 0064 FFF7FEFF 		bl	D4_Write
 748              	.LVL117:
 749 0068 D4E7     		b	.L58
 750              	.L61:
 237:main.c        **** 
 238:main.c        ****         }
 239:main.c        ****         else if(Switch_2_Read()){
 751              		.loc 1 239 0
 752 006a FFF7FEFF 		bl	Switch_2_Read
 753              	.LVL118:
 754 006e 10B1     		cbz	r0, .L63
 240:main.c        ****             MakeShortLight();
ARM GAS  C:\Users\julie\AppData\Local\Temp\ccRduDIA.s 			page 19


 755              		.loc 1 240 0
 756 0070 FFF7FEFF 		bl	MakeShortLight
 757              	.LVL119:
 758 0074 CEE7     		b	.L58
 759              	.L63:
 241:main.c        ****         }
 242:main.c        ****         else if(Switch_3_Read()){
 760              		.loc 1 242 0
 761 0076 FFF7FEFF 		bl	Switch_3_Read
 762              	.LVL120:
 763 007a 10B1     		cbz	r0, .L64
 243:main.c        ****             MakeLongLight();
 764              		.loc 1 243 0
 765 007c FFF7FEFF 		bl	MakeLongLight
 766              	.LVL121:
 767 0080 C8E7     		b	.L58
 768              	.L64:
 244:main.c        ****         }
 245:main.c        ****         else {D1_Write(0);
 769              		.loc 1 245 0
 770 0082 0020     		movs	r0, #0
 771 0084 FFF7FEFF 		bl	D1_Write
 772              	.LVL122:
 246:main.c        ****         D2_Write(0);
 773              		.loc 1 246 0
 774 0088 0020     		movs	r0, #0
 775 008a FFF7FEFF 		bl	D2_Write
 776              	.LVL123:
 247:main.c        ****         D3_Write(0);
 777              		.loc 1 247 0
 778 008e 0020     		movs	r0, #0
 779 0090 FFF7FEFF 		bl	D3_Write
 780              	.LVL124:
 248:main.c        ****         D4_Write(0);
 781              		.loc 1 248 0
 782 0094 0020     		movs	r0, #0
 783 0096 FFF7FEFF 		bl	D4_Write
 784              	.LVL125:
 785 009a BBE7     		b	.L58
 786              	.L67:
 787              		.align	2
 788              	.L66:
 789 009c 1C000000 		.word	.LC5
 790 00a0 24000000 		.word	.LC6
 791              		.cfi_endproc
 792              	.LFE70:
 793              		.size	main, .-main
 794              		.global	morse_9
 795              		.global	morse_8
 796              		.global	morse_7
 797              		.global	morse_6
 798              		.global	morse_5
 799              		.global	morse_4
 800              		.global	morse_3
 801              		.global	morse_2
 802              		.global	morse_1
 803              		.global	morse_0
ARM GAS  C:\Users\julie\AppData\Local\Temp\ccRduDIA.s 			page 20


 804              		.global	Z
 805              		.global	Y
 806              		.global	X
 807              		.global	W
 808              		.global	V
 809              		.global	U
 810              		.global	T
 811              		.global	S
 812              		.global	R
 813              		.global	Q
 814              		.global	P
 815              		.global	O
 816              		.global	N
 817              		.global	M
 818              		.global	L
 819              		.global	K
 820              		.global	J
 821              		.global	I
 822              		.global	H
 823              		.global	G
 824              		.global	F
 825              		.global	E
 826              		.global	D
 827              		.global	C
 828              		.global	B
 829              		.global	A
 830              		.section	.rodata
 831              		.align	2
 832              		.set	.LANCHOR0,. + 0
 833              		.type	A, %object
 834              		.size	A, 12
 835              	A:
 836 0000 01000000 		.word	1
 837 0004 02000000 		.word	2
 838 0008 00000000 		.word	0
 839              		.type	B, %object
 840              		.size	B, 20
 841              	B:
 842 000c 02000000 		.word	2
 843 0010 01000000 		.word	1
 844 0014 01000000 		.word	1
 845 0018 01000000 		.word	1
 846 001c 00000000 		.word	0
 847              		.type	C, %object
 848              		.size	C, 20
 849              	C:
 850 0020 02000000 		.word	2
 851 0024 01000000 		.word	1
 852 0028 02000000 		.word	2
 853 002c 01000000 		.word	1
 854 0030 00000000 		.word	0
 855              		.type	D, %object
 856              		.size	D, 16
 857              	D:
 858 0034 02000000 		.word	2
 859 0038 01000000 		.word	1
 860 003c 01000000 		.word	1
ARM GAS  C:\Users\julie\AppData\Local\Temp\ccRduDIA.s 			page 21


 861 0040 00000000 		.word	0
 862              		.type	E, %object
 863              		.size	E, 8
 864              	E:
 865 0044 01000000 		.word	1
 866 0048 00000000 		.word	0
 867              		.type	F, %object
 868              		.size	F, 20
 869              	F:
 870 004c 01000000 		.word	1
 871 0050 01000000 		.word	1
 872 0054 02000000 		.word	2
 873 0058 01000000 		.word	1
 874 005c 00000000 		.word	0
 875              		.type	G, %object
 876              		.size	G, 16
 877              	G:
 878 0060 02000000 		.word	2
 879 0064 02000000 		.word	2
 880 0068 01000000 		.word	1
 881 006c 00000000 		.word	0
 882              		.type	H, %object
 883              		.size	H, 20
 884              	H:
 885 0070 01000000 		.word	1
 886 0074 01000000 		.word	1
 887 0078 01000000 		.word	1
 888 007c 01000000 		.word	1
 889 0080 00000000 		.word	0
 890              		.type	I, %object
 891              		.size	I, 12
 892              	I:
 893 0084 01000000 		.word	1
 894 0088 01000000 		.word	1
 895 008c 00000000 		.word	0
 896              		.type	J, %object
 897              		.size	J, 20
 898              	J:
 899 0090 01000000 		.word	1
 900 0094 02000000 		.word	2
 901 0098 02000000 		.word	2
 902 009c 02000000 		.word	2
 903 00a0 00000000 		.word	0
 904              		.type	K, %object
 905              		.size	K, 16
 906              	K:
 907 00a4 02000000 		.word	2
 908 00a8 01000000 		.word	1
 909 00ac 02000000 		.word	2
 910 00b0 00000000 		.word	0
 911              		.type	L, %object
 912              		.size	L, 20
 913              	L:
 914 00b4 01000000 		.word	1
 915 00b8 02000000 		.word	2
 916 00bc 01000000 		.word	1
 917 00c0 01000000 		.word	1
ARM GAS  C:\Users\julie\AppData\Local\Temp\ccRduDIA.s 			page 22


 918 00c4 00000000 		.word	0
 919              		.type	M, %object
 920              		.size	M, 12
 921              	M:
 922 00c8 02000000 		.word	2
 923 00cc 02000000 		.word	2
 924 00d0 00000000 		.word	0
 925              		.type	N, %object
 926              		.size	N, 12
 927              	N:
 928 00d4 02000000 		.word	2
 929 00d8 01000000 		.word	1
 930 00dc 00000000 		.word	0
 931              		.type	O, %object
 932              		.size	O, 16
 933              	O:
 934 00e0 02000000 		.word	2
 935 00e4 02000000 		.word	2
 936 00e8 02000000 		.word	2
 937 00ec 00000000 		.word	0
 938              		.type	P, %object
 939              		.size	P, 20
 940              	P:
 941 00f0 01000000 		.word	1
 942 00f4 02000000 		.word	2
 943 00f8 02000000 		.word	2
 944 00fc 01000000 		.word	1
 945 0100 00000000 		.word	0
 946              		.type	Q, %object
 947              		.size	Q, 20
 948              	Q:
 949 0104 02000000 		.word	2
 950 0108 02000000 		.word	2
 951 010c 01000000 		.word	1
 952 0110 02000000 		.word	2
 953 0114 00000000 		.word	0
 954              		.type	R, %object
 955              		.size	R, 16
 956              	R:
 957 0118 01000000 		.word	1
 958 011c 02000000 		.word	2
 959 0120 01000000 		.word	1
 960 0124 00000000 		.word	0
 961              		.type	S, %object
 962              		.size	S, 16
 963              	S:
 964 0128 01000000 		.word	1
 965 012c 01000000 		.word	1
 966 0130 01000000 		.word	1
 967 0134 00000000 		.word	0
 968              		.type	T, %object
 969              		.size	T, 8
 970              	T:
 971 0138 02000000 		.word	2
 972 013c 00000000 		.word	0
 973              		.type	U, %object
 974              		.size	U, 16
ARM GAS  C:\Users\julie\AppData\Local\Temp\ccRduDIA.s 			page 23


 975              	U:
 976 0140 01000000 		.word	1
 977 0144 01000000 		.word	1
 978 0148 02000000 		.word	2
 979 014c 00000000 		.word	0
 980              		.type	V, %object
 981              		.size	V, 20
 982              	V:
 983 0150 01000000 		.word	1
 984 0154 01000000 		.word	1
 985 0158 01000000 		.word	1
 986 015c 02000000 		.word	2
 987 0160 00000000 		.word	0
 988              		.type	W, %object
 989              		.size	W, 16
 990              	W:
 991 0164 01000000 		.word	1
 992 0168 02000000 		.word	2
 993 016c 02000000 		.word	2
 994 0170 00000000 		.word	0
 995              		.type	X, %object
 996              		.size	X, 20
 997              	X:
 998 0174 02000000 		.word	2
 999 0178 01000000 		.word	1
 1000 017c 01000000 		.word	1
 1001 0180 02000000 		.word	2
 1002 0184 00000000 		.word	0
 1003              		.type	Y, %object
 1004              		.size	Y, 20
 1005              	Y:
 1006 0188 02000000 		.word	2
 1007 018c 01000000 		.word	1
 1008 0190 02000000 		.word	2
 1009 0194 02000000 		.word	2
 1010 0198 00000000 		.word	0
 1011              		.type	Z, %object
 1012              		.size	Z, 20
 1013              	Z:
 1014 019c 02000000 		.word	2
 1015 01a0 02000000 		.word	2
 1016 01a4 01000000 		.word	1
 1017 01a8 01000000 		.word	1
 1018 01ac 00000000 		.word	0
 1019              		.type	morse_9, %object
 1020              		.size	morse_9, 24
 1021              	morse_9:
 1022 01b0 02000000 		.word	2
 1023 01b4 02000000 		.word	2
 1024 01b8 02000000 		.word	2
 1025 01bc 02000000 		.word	2
 1026 01c0 01000000 		.word	1
 1027 01c4 00000000 		.word	0
 1028              		.type	morse_8, %object
 1029              		.size	morse_8, 24
 1030              	morse_8:
 1031 01c8 02000000 		.word	2
ARM GAS  C:\Users\julie\AppData\Local\Temp\ccRduDIA.s 			page 24


 1032 01cc 02000000 		.word	2
 1033 01d0 02000000 		.word	2
 1034 01d4 01000000 		.word	1
 1035 01d8 01000000 		.word	1
 1036 01dc 00000000 		.word	0
 1037              		.type	morse_7, %object
 1038              		.size	morse_7, 24
 1039              	morse_7:
 1040 01e0 02000000 		.word	2
 1041 01e4 02000000 		.word	2
 1042 01e8 01000000 		.word	1
 1043 01ec 01000000 		.word	1
 1044 01f0 01000000 		.word	1
 1045 01f4 00000000 		.word	0
 1046              		.type	morse_6, %object
 1047              		.size	morse_6, 24
 1048              	morse_6:
 1049 01f8 02000000 		.word	2
 1050 01fc 01000000 		.word	1
 1051 0200 01000000 		.word	1
 1052 0204 01000000 		.word	1
 1053 0208 01000000 		.word	1
 1054 020c 00000000 		.word	0
 1055              		.type	morse_5, %object
 1056              		.size	morse_5, 24
 1057              	morse_5:
 1058 0210 01000000 		.word	1
 1059 0214 01000000 		.word	1
 1060 0218 01000000 		.word	1
 1061 021c 01000000 		.word	1
 1062 0220 01000000 		.word	1
 1063 0224 00000000 		.word	0
 1064              		.type	morse_4, %object
 1065              		.size	morse_4, 24
 1066              	morse_4:
 1067 0228 01000000 		.word	1
 1068 022c 01000000 		.word	1
 1069 0230 01000000 		.word	1
 1070 0234 01000000 		.word	1
 1071 0238 02000000 		.word	2
 1072 023c 00000000 		.word	0
 1073              		.type	morse_3, %object
 1074              		.size	morse_3, 24
 1075              	morse_3:
 1076 0240 01000000 		.word	1
 1077 0244 01000000 		.word	1
 1078 0248 01000000 		.word	1
 1079 024c 02000000 		.word	2
 1080 0250 02000000 		.word	2
 1081 0254 00000000 		.word	0
 1082              		.type	morse_2, %object
 1083              		.size	morse_2, 24
 1084              	morse_2:
 1085 0258 01000000 		.word	1
 1086 025c 01000000 		.word	1
 1087 0260 02000000 		.word	2
 1088 0264 02000000 		.word	2
ARM GAS  C:\Users\julie\AppData\Local\Temp\ccRduDIA.s 			page 25


 1089 0268 02000000 		.word	2
 1090 026c 00000000 		.word	0
 1091              		.type	morse_1, %object
 1092              		.size	morse_1, 24
 1093              	morse_1:
 1094 0270 01000000 		.word	1
 1095 0274 02000000 		.word	2
 1096 0278 02000000 		.word	2
 1097 027c 02000000 		.word	2
 1098 0280 02000000 		.word	2
 1099 0284 00000000 		.word	0
 1100              		.type	morse_0, %object
 1101              		.size	morse_0, 24
 1102              	morse_0:
 1103 0288 02000000 		.word	2
 1104 028c 02000000 		.word	2
 1105 0290 02000000 		.word	2
 1106 0294 02000000 		.word	2
 1107 0298 02000000 		.word	2
 1108 029c 00000000 		.word	0
 1109              		.section	.rodata.str1.4,"aMS",%progbits,1
 1110              		.align	2
 1111              	.LC0:
 1112 0000 25732573 		.ascii	"%s%s\000"
 1112      00
 1113 0005 000000   		.space	3
 1114              	.LC1:
 1115 0008 312A00   		.ascii	"1*\000"
 1116 000b 00       		.space	1
 1117              	.LC2:
 1118 000c 534F5300 		.ascii	"SOS\000"
 1119              	.LC3:
 1120 0010 322A00   		.ascii	"2*\000"
 1121 0013 00       		.space	1
 1122              	.LC4:
 1123 0014 4245414D 		.ascii	"BEAMS\000"
 1123      5300
 1124 001a 0000     		.space	2
 1125              	.LC5:
 1126 001c 68656C6C 		.ascii	"hello\000"
 1126      6F00
 1127 0022 0000     		.space	2
 1128              	.LC6:
 1129 0024 7A00     		.ascii	"z\000"
 1130              		.text
 1131              	.Letext0:
 1132              		.file 2 "c:\\program files (x86)\\cypress\\psoc creator\\4.3\\psoc creator\\import\\gnu\\arm\\5.4.
 1133              		.file 3 "c:\\program files (x86)\\cypress\\psoc creator\\4.3\\psoc creator\\import\\gnu\\arm\\5.4.
 1134              		.file 4 "Generated_Source\\PSoC5/core_cm3.h"
 1135              		.file 5 "Generated_Source\\PSoC5/D1.h"
 1136              		.file 6 "Generated_Source\\PSoC5/D2.h"
 1137              		.file 7 "Generated_Source\\PSoC5/D3.h"
 1138              		.file 8 "Generated_Source\\PSoC5/D4.h"
 1139              		.file 9 "Generated_Source\\PSoC5/CyLib.h"
 1140              		.file 10 "Generated_Source\\PSoC5/LCD_Char_1.h"
 1141              		.file 11 "c:\\program files (x86)\\cypress\\psoc creator\\4.3\\psoc creator\\import\\gnu\\arm\\5.4
 1142              		.file 12 "keypad.h"
ARM GAS  C:\Users\julie\AppData\Local\Temp\ccRduDIA.s 			page 26


 1143              		.file 13 "Generated_Source\\PSoC5/Switch_1.h"
 1144              		.file 14 "Generated_Source\\PSoC5/Switch_2.h"
 1145              		.file 15 "Generated_Source\\PSoC5/Switch_3.h"